(dp0
S'buildDestination'
p1
S''
p2
sS'saveDestination'
p3
V/Users/judithekoch/Dropbox/Twine/Twine_JK_0.1
p4
sS'target'
p5
S'sugarcane'
p6
sS'storyPanel'
p7
(dp8
S'widgets'
p9
(lp10
(dp11
S'selected'
p12
I00
sS'pos'
p13
(lp14
I10
aI10
asS'passage'
p15
(itiddlywiki
Tiddler
p16
(dp17
S'text'
p18
S'Your story will display this passage first. Edit it by double clicking it.'
p19
sS'created'
p20
ctime
struct_time
p21
((I2013
I7
I27
I11
I18
I9
I5
I208
I1
tp22
(dp23
tp24
Rp25
sS'title'
p26
S'Start'
p27
sS'modified'
p28
g25
sS'tags'
p29
(lp30
sbsa(dp31
g12
I00
sg13
(lp32
I150
aI10
asg15
(itiddlywiki
Tiddler
p33
(dp34
g18
Vunknown
p35
sg20
g21
((I2013
I7
I27
I11
I19
I7
I5
I208
I1
tp36
(dp37
tp38
Rp39
sg26
VStoryTitle
p40
sg28
g39
sg29
(lp41
sbsa(dp42
g12
I01
sg13
(lp43
I290
aI10
asg15
(itiddlywiki
Tiddler
p44
(dp45
g18
Vjudithekoch
p46
sg29
(lp47
sg20
g21
((I2013
I7
I27
I11
I36
I6
I5
I208
I1
tp48
(dp49
tp50
Rp51
sg28
g51
sg26
VStoryAuthor
p52
sbsasS'scale'
p53
I1
ss.